target datalayout = "e-m:e-p270:32:32-p271:32:32-p272:64:64-i64:64-i128:128-f80:128-n8:16:32:64-S128"
target triple = "x86_64-pc-linux-gnu"

; Function Attrs: nounwind uwtable
define internal void @normalize_protected_variable(ptr noundef %0) #0 {
  %2 = alloca ptr, align 8
  %3 = alloca ptr, align 8
  %4 = alloca ptr, align 8
  %5 = alloca ptr, align 8
  %6 = alloca ptr, align 8
  %7 = alloca i32, align 4
  store ptr %0, ptr %2, align 8, !tbaa !41
  call void @llvm.lifetime.start.p0(i64 8, ptr %3) #15
  %8 = load ptr, ptr %2, align 8, !tbaa !41
  store ptr %8, ptr %3, align 8, !tbaa !41
  call void @llvm.lifetime.start.p0(i64 8, ptr %4) #15
  store ptr null, ptr %4, align 8, !tbaa !41
  call void @llvm.lifetime.start.p0(i64 8, ptr %5) #15
  store ptr null, ptr %5, align 8, !tbaa !41
  call void @llvm.lifetime.start.p0(i64 8, ptr %6) #15
  br label %9

9:                                                ; preds = %14, %1
  %10 = load ptr, ptr %3, align 8, !tbaa !41
  %11 = load i8, ptr %10, align 1, !tbaa !33
  %12 = sext i8 %11 to i32
  %13 = icmp eq i32 %12, 32
  br i1 %13, label %14, label %17

14:                                               ; preds = %9
  %15 = load ptr, ptr %3, align 8, !tbaa !41
  %16 = getelementptr inbounds nuw i8, ptr %15, i32 1
  store ptr %16, ptr %3, align 8, !tbaa !41
  br label %9

17:                                               ; preds = %9
  %18 = load ptr, ptr %3, align 8, !tbaa !41
  %19 = load ptr, ptr %2, align 8, !tbaa !41
  %20 = icmp ne ptr %18, %19
  br i1 %20, label %21, label %27

21:                                               ; preds = %17
  %22 = load ptr, ptr %2, align 8, !tbaa !41
  %23 = load ptr, ptr %3, align 8, !tbaa !41
  %24 = load ptr, ptr %3, align 8, !tbaa !41
  %25 = call i64 @strlen(ptr noundef %24) #16
  %26 = add i64 %25, 1
  call void @llvm.memmove.p0.p0.i64(ptr align 1 %22, ptr align 1 %23, i64 %26, i1 false)
  br label %27

27:                                               ; preds = %21, %17
  %28 = load ptr, ptr %2, align 8, !tbaa !41
  store ptr %28, ptr %6, align 8, !tbaa !41
  br label %29

29:                                               ; preds = %48, %27
  %30 = load ptr, ptr %6, align 8, !tbaa !41
  %31 = load i8, ptr %30, align 1, !tbaa !33
  %32 = sext i8 %31 to i32
  %33 = icmp ne i32 %32, 0
  br i1 %33, label %34, label %39

34:                                               ; preds = %29
  %35 = load ptr, ptr %6, align 8, !tbaa !41
  %36 = load i8, ptr %35, align 1, !tbaa !33
  %37 = sext i8 %36 to i32
  %38 = icmp ne i32 %37, 91
  br label %39

39:                                               ; preds = %34, %29
  %40 = phi i1 [ false, %29 ], [ %38, %34 ]
  br i1 %40, label %41, label %51

41:                                               ; preds = %39
  %42 = load ptr, ptr %6, align 8, !tbaa !41
  %43 = load i8, ptr %42, align 1, !tbaa !33
  %44 = sext i8 %43 to i32
  switch i32 %44, label %47 [
    i32 32, label %45
    i32 46, label %45
  ]

45:                                               ; preds = %41, %41
  %46 = load ptr, ptr %6, align 8, !tbaa !41
  store i8 95, ptr %46, align 1, !tbaa !33
  br label %47

47:                                               ; preds = %41, %45
  br label %48

48:                                               ; preds = %47
  %49 = load ptr, ptr %6, align 8, !tbaa !41
  %50 = getelementptr inbounds nuw i8, ptr %49, i32 1
  store ptr %50, ptr %6, align 8, !tbaa !41
  br label %29

51:                                               ; preds = %39
  %52 = load ptr, ptr %2, align 8, !tbaa !41
  %53 = call ptr @strchr(ptr noundef %52, i32 noundef 91) #16
  store ptr %53, ptr %4, align 8, !tbaa !41
  %54 = load ptr, ptr %4, align 8, !tbaa !41
  %55 = icmp ne ptr %54, null
  br i1 %55, label %56, label %60

56:                                               ; preds = %51
  %57 = load ptr, ptr %4, align 8, !tbaa !41
  %58 = getelementptr inbounds nuw i8, ptr %57, i32 1
  store ptr %58, ptr %4, align 8, !tbaa !41
  %59 = load ptr, ptr %4, align 8, !tbaa !41
  store ptr %59, ptr %3, align 8, !tbaa !41
  br label %61

60:                                               ; preds = %51
  store i32 1, ptr %7, align 4
  br label %137

61:                                               ; preds = %56
  br label %62

62:                                               ; preds = %134, %61
  %63 = load ptr, ptr %4, align 8, !tbaa !41
  %64 = icmp ne ptr %63, null
  br i1 %64, label %65, label %135

65:                                               ; preds = %62
  br label %66

66:                                               ; preds = %88, %65
  %67 = load ptr, ptr %4, align 8, !tbaa !41
  %68 = load i8, ptr %67, align 1, !tbaa !33
  %69 = sext i8 %68 to i32
  %70 = icmp eq i32 %69, 32
  br i1 %70, label %86, label %71

71:                                               ; preds = %66
  %72 = load ptr, ptr %4, align 8, !tbaa !41
  %73 = load i8, ptr %72, align 1, !tbaa !33
  %74 = sext i8 %73 to i32
  %75 = icmp eq i32 %74, 13
  br i1 %75, label %86, label %76

76:                                               ; preds = %71
  %77 = load ptr, ptr %4, align 8, !tbaa !41
  %78 = load i8, ptr %77, align 1, !tbaa !33
  %79 = sext i8 %78 to i32
  %80 = icmp eq i32 %79, 10
  br i1 %80, label %86, label %81

81:                                               ; preds = %76
  %82 = load ptr, ptr %4, align 8, !tbaa !41
  %83 = load i8, ptr %82, align 1, !tbaa !33
  %84 = sext i8 %83 to i32
  %85 = icmp eq i32 %84, 9
  br label %86

86:                                               ; preds = %81, %76, %71, %66
  %87 = phi i1 [ true, %76 ], [ true, %71 ], [ true, %66 ], [ %85, %81 ]
  br i1 %87, label %88, label %91

88:                                               ; preds = %86
  %89 = load ptr, ptr %4, align 8, !tbaa !41
  %90 = getelementptr inbounds nuw i8, ptr %89, i32 1
  store ptr %90, ptr %4, align 8, !tbaa !41
  br label %66

91:                                               ; preds = %86
  %92 = load ptr, ptr %4, align 8, !tbaa !41
  %93 = call ptr @strchr(ptr noundef %92, i32 noundef 93) #16
  store ptr %93, ptr %5, align 8, !tbaa !41
  %94 = load ptr, ptr %5, align 8, !tbaa !41
  %95 = icmp ne ptr %94, null
  br i1 %95, label %96, label %99

96:                                               ; preds = %91
  %97 = load ptr, ptr %5, align 8, !tbaa !41
  %98 = getelementptr inbounds i8, ptr %97, i64 1
  br label %104

99:                                               ; preds = %91
  %100 = load ptr, ptr %4, align 8, !tbaa !41
  %101 = load ptr, ptr %4, align 8, !tbaa !41
  %102 = call i64 @strlen(ptr noundef %101) #16
  %103 = getelementptr inbounds nuw i8, ptr %100, i64 %102
  br label %104

104:                                              ; preds = %99, %96
  %105 = phi ptr [ %98, %96 ], [ %103, %99 ]
  store ptr %105, ptr %5, align 8, !tbaa !41
  %106 = load ptr, ptr %3, align 8, !tbaa !41
  %107 = load ptr, ptr %4, align 8, !tbaa !41
  %108 = icmp ne ptr %106, %107
  br i1 %108, label %109, label %122

109:                                              ; preds = %104
  %110 = load ptr, ptr %3, align 8, !tbaa !41
  %111 = load ptr, ptr %4, align 8, !tbaa !41
  %112 = load ptr, ptr %4, align 8, !tbaa !41
  %113 = call i64 @strlen(ptr noundef %112) #16
  %114 = add i64 %113, 1
  call void @llvm.memmove.p0.p0.i64(ptr align 1 %110, ptr align 1 %111, i64 %114, i1 false)
  %115 = load ptr, ptr %5, align 8, !tbaa !41
  %116 = load ptr, ptr %4, align 8, !tbaa !41
  %117 = ptrtoint ptr %115 to i64
  %118 = ptrtoint ptr %116 to i64
  %119 = sub i64 %117, %118
  %120 = load ptr, ptr %3, align 8, !tbaa !41
  %121 = getelementptr inbounds i8, ptr %120, i64 %119
  store ptr %121, ptr %3, align 8, !tbaa !41
  br label %124

122:                                              ; preds = %104
  %123 = load ptr, ptr %5, align 8, !tbaa !41
  store ptr %123, ptr %3, align 8, !tbaa !41
  br label %124

124:                                              ; preds = %122, %109
  %125 = load ptr, ptr %3, align 8, !tbaa !41
  %126 = load i8, ptr %125, align 1, !tbaa !33
  %127 = sext i8 %126 to i32
  %128 = icmp eq i32 %127, 91
  br i1 %128, label %129, label %133

129:                                              ; preds = %124
  %130 = load ptr, ptr %3, align 8, !tbaa !41
  %131 = getelementptr inbounds nuw i8, ptr %130, i32 1
  store ptr %131, ptr %3, align 8, !tbaa !41
  %132 = load ptr, ptr %3, align 8, !tbaa !41
  store ptr %132, ptr %4, align 8, !tbaa !41
  br label %134

133:                                              ; preds = %124
  store ptr null, ptr %4, align 8, !tbaa !41
  br label %134

134:                                              ; preds = %133, %129
  br label %62

135:                                              ; preds = %62
  %136 = load ptr, ptr %3, align 8, !tbaa !41
  store i8 0, ptr %136, align 1, !tbaa !33
  store i32 0, ptr %7, align 4
  br label %137

137:                                              ; preds = %135, %60
  call void @llvm.lifetime.end.p0(i64 8, ptr %6) #15
  call void @llvm.lifetime.end.p0(i64 8, ptr %5) #15
  call void @llvm.lifetime.end.p0(i64 8, ptr %4) #15
  call void @llvm.lifetime.end.p0(i64 8, ptr %3) #15
  %138 = load i32, ptr %7, align 4
  switch i32 %138, label %140 [
    i32 0, label %139
    i32 1, label %139
  ]

139:                                              ; preds = %137, %137
  ret void

140:                                              ; preds = %137
  unreachable
}