; Function Attrs: nofree nounwind memory(readwrite, inaccessiblemem: none) uwtable
define internal fastcc void @normalize_protected_variable(ptr noundef %0) unnamed_addr #18 {
  br label %2

2:                                                ; preds = %2, %1
  %.045 = phi ptr [ %0, %1 ], [ %5, %2 ]
  %3 = load i8, ptr %.045, align 1, !tbaa !32
  %4 = icmp eq i8 %3, 32
  %5 = getelementptr inbounds nuw i8, ptr %.045, i64 1
  br i1 %4, label %2, label %6

6:                                                ; preds = %2
  %.not = icmp eq ptr %.045, %0
  br i1 %.not, label %.preheader63, label %7

7:                                                ; preds = %6
  %8 = tail call i64 @strlen(ptr noundef nonnull dereferenceable(1) %.045) #22
  %9 = add i64 %8, 1
  tail call void @llvm.memmove.p0.p0.i64(ptr align 1 %0, ptr nonnull align 1 %.045, i64 %9, i1 false)
  br label %.preheader63

.preheader63:                                     ; preds = %7, %6
  br label %10

10:                                               ; preds = %.preheader63, %13
  %.0 = phi ptr [ %14, %13 ], [ %0, %.preheader63 ]
  %11 = load i8, ptr %.0, align 1, !tbaa !32
  switch i8 %11, label %13 [
    i8 0, label %.critedge
    i8 91, label %.critedge
    i8 32, label %12
    i8 46, label %12
  ]

12:                                               ; preds = %10, %10
  store i8 95, ptr %.0, align 1, !tbaa !32
  br label %13

13:                                               ; preds = %10, %12
  %14 = getelementptr inbounds nuw i8, ptr %.0, i64 1
  br label %10

.critedge:                                        ; preds = %10, %10
  %15 = tail call ptr @strchr(ptr noundef nonnull dereferenceable(1) %0, i32 noundef 91) #22
  %.not55 = icmp eq ptr %15, null
  br i1 %.not55, label %36, label %.preheader

.preheader:                                       ; preds = %.critedge, %select.unfold
  %.pn = phi ptr [ %.247, %select.unfold ], [ %15, %.critedge ]
  %.04461.ptr = getelementptr inbounds nuw i8, ptr %.pn, i64 1
  br label %16

16:                                               ; preds = %.preheader, %.critedge2
  %.1.idx = phi i64 [ %.1.add, %.critedge2 ], [ 1, %.preheader ]
  %.1.ptr = getelementptr inbounds nuw i8, ptr %.pn, i64 %.1.idx
  %17 = load i8, ptr %.1.ptr, align 1, !tbaa !32
  switch i8 %17, label %18 [
    i8 32, label %.critedge2
    i8 13, label %.critedge2
    i8 10, label %.critedge2
    i8 9, label %.critedge2
  ]

.critedge2:                                       ; preds = %16, %16, %16, %16
  %.1.add = add nuw nsw i64 %.1.idx, 1
  br label %16

18:                                               ; preds = %16
  %.1.ptr.le = getelementptr inbounds nuw i8, ptr %.pn, i64 %.1.idx
  %19 = tail call ptr @strchr(ptr noundef nonnull dereferenceable(1) %.1.ptr.le, i32 noundef 93) #22
  %.not57 = icmp eq ptr %19, null
  br i1 %.not57, label %22, label %20

20:                                               ; preds = %18
  %21 = getelementptr inbounds nuw i8, ptr %19, i64 1
  br label %25

22:                                               ; preds = %18
  %23 = tail call i64 @strlen(ptr noundef nonnull dereferenceable(1) %.1.ptr.le) #22
  %24 = getelementptr inbounds nuw i8, ptr %.1.ptr.le, i64 %23
  br label %25

25:                                               ; preds = %22, %20
  %26 = phi ptr [ %21, %20 ], [ %24, %22 ]
  %.not58 = icmp eq i64 %.1.idx, 1
  br i1 %.not58, label %select.unfold, label %27

27:                                               ; preds = %25
  %28 = tail call i64 @strlen(ptr noundef nonnull dereferenceable(1) %.1.ptr.le) #22
  %29 = add i64 %28, 1
  tail call void @llvm.memmove.p0.p0.i64(ptr nonnull align 1 %.04461.ptr, ptr nonnull align 1 %.1.ptr.le, i64 %29, i1 false)
  %30 = ptrtoint ptr %26 to i64
  %31 = ptrtoint ptr %.1.ptr.le to i64
  %32 = sub i64 %30, %31
  %33 = getelementptr inbounds i8, ptr %.04461.ptr, i64 %32
  br label %select.unfold

select.unfold:                                    ; preds = %25, %27
  %.247 = phi ptr [ %33, %27 ], [ %26, %25 ]
  %34 = load i8, ptr %.247, align 1, !tbaa !32
  %.not62 = icmp eq i8 %34, 91
  br i1 %.not62, label %.preheader, label %35

35:                                               ; preds = %select.unfold
  store i8 0, ptr %.247, align 1, !tbaa !32
  br label %36

36:                                               ; preds = %.critedge, %35
  ret void
}